Certificate:
    Data:
        Version: 3 (0x2)
        Serial Number:
            2a:90:43:ea:8d:d9:64:ae:54:ad:b8:0d:78:de:88:fc:e4:43:ea:75
        Signature Algorithm: sha256WithRSAEncryption
        Issuer: C=CH, O=HEIG-VD, CN=LESTIBOUDOIS-TLS
        Validity
            Not Before: Jun  6 10:05:03 2025 GMT
            Not After : Jun  6 10:05:03 2027 GMT
        Subject: C=CH, O=HEIG-VD, CN=https:\/\/secuctfd.iict-heig-vd.in
        Subject Public Key Info:
            Public Key Algorithm: rsaEncryption
                Public-Key: (2048 bit)
                Modulus:
                    00:8f:fd:75:fa:d2:d9:62:bf:55:61:0b:84:d8:64:
                    f5:b9:1c:21:d2:bb:f7:64:7d:4b:ae:f4:d8:ee:51:
                    e8:d5:13:03:6e:29:d4:ff:0d:9b:ed:e3:fe:ae:45:
                    df:a9:cb:77:20:73:6d:47:b2:9b:30:87:3d:d0:0a:
                    4b:ee:33:c0:7a:f6:bb:a1:d6:3f:e3:3d:6e:cf:02:
                    b3:8f:03:f3:82:19:80:69:0c:04:61:56:38:a5:2d:
                    76:42:fc:9b:ae:3d:be:51:d4:c9:a7:b2:db:68:46:
                    fc:50:9b:3d:14:22:db:d9:2d:a7:f3:34:e6:d1:e5:
                    2a:2e:bc:a5:ba:5e:03:de:4c:15:61:51:b6:5f:7a:
                    86:ff:d4:d0:e4:bc:7b:83:ea:1e:15:4f:ae:96:bf:
                    50:2b:67:fa:6b:af:14:a4:16:13:93:55:90:bb:7a:
                    39:17:0b:74:d9:83:bb:ad:9f:a6:1a:ca:f9:cd:6a:
                    0a:30:99:5d:52:92:14:79:cd:e0:19:e5:a8:26:b0:
                    c2:6d:fc:97:06:cf:26:b7:3f:b5:07:c4:3d:fc:a1:
                    82:8e:b7:91:a3:b9:17:9f:e6:41:04:00:dc:e0:6d:
                    5c:d6:99:b7:b4:7c:24:d3:d7:2c:81:b0:ac:24:8d:
                    c4:6e:b4:a6:36:53:b3:de:ff:95:be:4d:f2:f5:b3:
                    cf:39
                Exponent: 65537 (0x10001)
        X509v3 extensions:
            X509v3 Key Usage: critical
                Digital Signature, Key Encipherment
            X509v3 Basic Constraints: 
                CA:FALSE
            X509v3 Extended Key Usage: 
                TLS Web Server Authentication, TLS Web Client Authentication
            X509v3 Subject Key Identifier: 
                96:6B:1C:45:49:8E:18:4F:95:69:FA:FA:EF:01:12:C7:83:FA:3E:DB
            X509v3 Authority Key Identifier: 
                42:CC:D3:93:88:69:A7:27:16:1C:53:EF:E9:D7:F5:0A:31:5C:4C:50
    Signature Algorithm: sha256WithRSAEncryption
    Signature Value:
        1e:ce:8e:92:d4:b9:31:88:dd:33:b1:e3:98:df:16:5b:dd:6a:
        65:64:a7:c2:77:67:02:e8:c6:ad:a8:6f:71:34:b4:6e:da:c8:
        25:1c:6b:0f:6e:58:8e:9e:dc:af:e2:b6:f5:9d:bb:0d:72:e3:
        3b:ff:94:35:e1:4d:ae:56:5b:51:ef:16:cd:1b:64:0b:99:3f:
        b2:19:6f:9e:36:57:bb:5c:20:74:71:c0:e1:95:61:41:93:c7:
        42:c7:96:7e:96:e8:02:5b:f3:07:5b:f9:5f:93:89:cd:98:48:
        8a:98:e9:ae:7c:05:38:28:6d:92:15:a1:ea:75:88:6b:f5:49:
        a1:09:21:b4:ed:cf:f7:3f:fd:58:4b:b7:3f:f3:b3:7e:27:2a:
        5a:c6:07:f0:31:70:c6:19:90:d5:d6:51:5d:e4:b8:6b:b8:90:
        9a:f5:28:76:03:57:5c:5d:9e:f2:8c:8a:a9:b6:df:22:9b:df:
        44:ff:31:8f:a8:d5:e4:74:63:b3:4f:75:9b:c4:d9:9d:66:ef:
        65:99:c6:7c:52:a1:2a:c7:dd:49:a8:ec:bb:06:91:fa:e4:5f:
        ea:a0:ca:13:12:91:e7:c6:6a:a6:88:1c:a3:0c:97:6d:26:d9:
        f9:ea:b4:b0:c1:bb:09:90:db:40:ee:66:58:c8:57:93:74:c0:
        e8:0b:d3:f0
-----BEGIN CERTIFICATE-----
MIIDjjCCAnagAwIBAgIUKpBD6o3ZZK5UrbgNeN6I/ORD6nUwDQYJKoZIhvcNAQEL
BQAwOjELMAkGA1UEBhMCQ0gxEDAOBgNVBAoMB0hFSUctVkQxGTAXBgNVBAMMEExF
U1RJQk9VRE9JUy1UTFMwHhcNMjUwNjA2MTAwNTAzWhcNMjcwNjA2MTAwNTAzWjBK
MQswCQYDVQQGEwJDSDEQMA4GA1UECgwHSEVJRy1WRDEpMCcGA1UEAwwgaHR0cHM6
Ly9zZWN1Y3RmZC5paWN0LWhlaWctdmQuaW4wggEiMA0GCSqGSIb3DQEBAQUAA4IB
DwAwggEKAoIBAQCP/XX60tliv1VhC4TYZPW5HCHSu/dkfUuu9NjuUejVEwNuKdT/
DZvt4/6uRd+py3cgc21Hspswhz3QCkvuM8B69ruh1j/jPW7PArOPA/OCGYBpDARh
VjilLXZC/JuuPb5R1MmnsttoRvxQmz0UItvZLafzNObR5SouvKW6XgPeTBVhUbZf
eob/1NDkvHuD6h4VT66Wv1ArZ/prrxSkFhOTVZC7ejkXC3TZg7utn6YayvnNagow
mV1SkhR5zeAZ5agmsMJt/JcGzya3P7UHxD38oYKOt5GjuRef5kEEANzgbVzWmbe0
fCTT1yyBsKwkjcRutKY2U7Pe/5W+TfL1s885AgMBAAGjfDB6MA4GA1UdDwEB/wQE
AwIFoDAJBgNVHRMEAjAAMB0GA1UdJQQWMBQGCCsGAQUFBwMBBggrBgEFBQcDAjAd
BgNVHQ4EFgQUlmscRUmOGE+Vafr67wESx4P6PtswHwYDVR0jBBgwFoAUQszTk4hp
pycWHFPv6df1CjFcTFAwDQYJKoZIhvcNAQELBQADggEBAB7OjpLUuTGI3TOx45jf
FlvdamVkp8J3ZwLoxq2ob3E0tG7ayCUcaw9uWI6e3K/itvWduw1y4zv/lDXhTa5W
W1HvFs0bZAuZP7IZb542V7tcIHRxwOGVYUGTx0LHln6W6AJb8wdb+V+Tic2YSIqY
6a58BTgobZIVoep1iGv1SaEJIbTtz/c//VhLtz/zs34nKlrGB/AxcMYZkNXWUV3k
uGu4kJr1KHYDV1xdnvKMiqm23yKb30T/MY+o1eR0Y7NPdZvE2Z1m72WZxnxSoSrH
3Umo7LsGkfrkX+qgyhMSkefGaqaIHKMMl20m2fnqtLDBuwmQ20DuZljIV5N0wOgL
0/A=
-----END CERTIFICATE-----
