Certificate:
    Data:
        Version: 3 (0x2)
        Serial Number:
            4f:03:57:30:24:d2:a4:ff:b7:81:6b:8f:93:bb:b6:dc:61:98:cd:f5
        Signature Algorithm: sha256WithRSAEncryption
        Issuer: C=CH, O=HEIG-VD, CN=LESTIBOUDOIS-Email
        Validity
            Not Before: Jun  3 13:49:58 2025 GMT
            Not After : Jun  3 13:49:58 2027 GMT
        Subject: C=CH, O=HEIG-VD, CN=maxime.lestibou@hes-so.ch
        Subject Public Key Info:
            Public Key Algorithm: rsaEncryption
                Public-Key: (2048 bit)
                Modulus:
                    00:ae:e2:6f:71:5c:57:be:3b:6f:a0:83:57:7f:db:
                    36:02:1f:fe:76:87:3d:75:7b:eb:23:27:08:47:f2:
                    43:1e:66:c8:d6:91:9c:4b:a9:17:f0:d7:a9:b0:36:
                    bb:c4:02:7c:4f:dc:8d:40:10:04:8a:31:45:e0:54:
                    d4:5e:12:10:9d:84:77:2e:5e:a9:df:54:3e:5c:93:
                    16:dd:64:25:75:38:69:67:fb:9e:5f:db:39:7d:6d:
                    28:7c:51:76:93:95:b9:21:18:46:d2:b2:4d:ab:31:
                    59:81:b7:1d:45:9a:6a:59:b2:ee:bc:a1:86:4a:11:
                    1d:c9:00:93:b6:36:d0:24:ff:eb:b1:69:ed:26:62:
                    29:af:b3:1b:52:1d:eb:1b:e2:72:42:2b:c0:30:ff:
                    f3:3b:f9:c4:b1:f6:3d:ac:66:39:09:a4:ff:3a:c5:
                    47:a8:7f:0a:b8:3d:97:47:6c:a9:23:97:f4:1c:ac:
                    0d:0c:2f:52:17:b2:8d:31:87:08:51:22:50:b1:8b:
                    e3:39:7b:32:9e:0d:aa:62:0c:ed:cb:f3:24:5f:cd:
                    f4:f8:30:a3:79:af:db:9d:44:7f:ea:e3:e9:68:2d:
                    7b:a8:d4:de:d1:38:7f:9e:75:78:f6:bf:da:36:79:
                    99:69:db:f8:1d:71:83:45:4e:7b:51:09:db:c2:fb:
                    95:e3
                Exponent: 65537 (0x10001)
        X509v3 extensions:
            X509v3 Key Usage: critical
                Digital Signature, Key Encipherment
            X509v3 Basic Constraints: 
                CA:FALSE
            X509v3 Extended Key Usage: 
                E-mail Protection, TLS Web Client Authentication, Any Extended Key Usage
            X509v3 Subject Key Identifier: 
                78:7E:2A:AC:DC:0C:FD:B3:8E:DC:7E:C3:4F:6A:DC:1A:60:59:24:8C
            X509v3 Authority Key Identifier: 
                1F:05:86:30:38:9E:10:6C:FF:97:1D:88:88:7D:59:5A:88:25:A5:57
            X509v3 Subject Alternative Name: 
                email:maxime.lestibou@hes-so.ch
    Signature Algorithm: sha256WithRSAEncryption
    Signature Value:
        6c:e3:4d:38:2a:67:b2:90:85:d0:49:1b:b1:6c:f5:8d:a2:c6:
        35:25:1b:2e:6a:05:85:00:47:46:fe:17:4b:ff:28:fa:2a:3d:
        4b:e2:d6:14:5c:db:d9:34:8d:1a:57:1a:cc:0f:16:a5:4c:e7:
        82:93:a2:b1:07:9d:a2:ee:37:1f:21:95:4e:a3:fd:84:c6:ad:
        a0:16:81:1a:42:67:55:f1:c4:6d:18:54:53:c6:f8:8b:9c:c2:
        bf:5a:2d:6e:f3:56:04:88:df:a9:21:61:2e:89:b6:c2:0e:d2:
        95:aa:a7:55:45:de:ce:6d:d6:20:65:f4:4d:c9:d7:15:c7:d6:
        5f:a2:21:03:19:62:98:f5:09:ae:fc:12:f8:ee:35:c9:56:6e:
        ae:80:d6:4b:0d:f2:50:0b:e6:28:9c:69:f1:fd:a8:6f:33:fd:
        81:44:15:43:b1:7e:57:d8:8b:93:9e:88:48:4e:03:9d:38:92:
        71:64:43:fd:c6:d4:4c:c6:3c:25:96:50:20:18:a4:14:4d:af:
        b0:17:a6:b9:63:12:41:50:7c:7e:a8:75:b6:93:c2:e7:b3:a2:
        7d:86:ac:58:ad:a0:1d:73:7e:24:ae:83:14:9f:6a:5d:13:0f:
        bb:b6:52:5e:2a:d1:71:4e:48:60:84:cf:77:5b:34:1e:98:f2:
        08:48:21:ef
-----BEGIN CERTIFICATE-----
MIIDtzCCAp+gAwIBAgIUTwNXMCTSpP+3gWuPk7u23GGYzfUwDQYJKoZIhvcNAQEL
BQAwPDELMAkGA1UEBhMCQ0gxEDAOBgNVBAoMB0hFSUctVkQxGzAZBgNVBAMMEkxF
U1RJQk9VRE9JUy1FbWFpbDAeFw0yNTA2MDMxMzQ5NThaFw0yNzA2MDMxMzQ5NTha
MEMxCzAJBgNVBAYTAkNIMRAwDgYDVQQKDAdIRUlHLVZEMSIwIAYDVQQDDBltYXhp
bWUubGVzdGlib3VAaGVzLXNvLmNoMIIBIjANBgkqhkiG9w0BAQEFAAOCAQ8AMIIB
CgKCAQEAruJvcVxXvjtvoINXf9s2Ah/+doc9dXvrIycIR/JDHmbI1pGcS6kX8Nep
sDa7xAJ8T9yNQBAEijFF4FTUXhIQnYR3Ll6p31Q+XJMW3WQldThpZ/ueX9s5fW0o
fFF2k5W5IRhG0rJNqzFZgbcdRZpqWbLuvKGGShEdyQCTtjbQJP/rsWntJmIpr7Mb
Uh3rG+JyQivAMP/zO/nEsfY9rGY5CaT/OsVHqH8KuD2XR2ypI5f0HKwNDC9SF7KN
MYcIUSJQsYvjOXsyng2qYgzty/MkX830+DCjea/bnUR/6uPpaC17qNTe0Th/nnV4
9r/aNnmZadv4HXGDRU57UQnbwvuV4wIDAQABo4GpMIGmMA4GA1UdDwEB/wQEAwIF
oDAJBgNVHRMEAjAAMCMGA1UdJQQcMBoGCCsGAQUFBwMEBggrBgEFBQcDAgYEVR0l
ADAdBgNVHQ4EFgQUeH4qrNwM/bOO3H7DT2rcGmBZJIwwHwYDVR0jBBgwFoAUHwWG
MDieEGz/lx2IiH1ZWoglpVcwJAYDVR0RBB0wG4EZbWF4aW1lLmxlc3RpYm91QGhl
cy1zby5jaDANBgkqhkiG9w0BAQsFAAOCAQEAbONNOCpnspCF0EkbsWz1jaLGNSUb
LmoFhQBHRv4XS/8o+io9S+LWFFzb2TSNGlcazA8WpUzngpOisQedou43HyGVTqP9
hMatoBaBGkJnVfHEbRhUU8b4i5zCv1otbvNWBIjfqSFhLom2wg7SlaqnVUXezm3W
IGX0TcnXFcfWX6IhAxlimPUJrvwS+O41yVZuroDWSw3yUAvmKJxp8f2obzP9gUQV
Q7F+V9iLk56ISE4DnTiScWRD/cbUTMY8JZZQIBikFE2vsBemuWMSQVB8fqh1tpPC
57OifYasWK2gHXN+JK6DFJ9qXRMPu7ZSXirRcU5IYITPd1s0HpjyCEgh7w==
-----END CERTIFICATE-----
