Certificate:
    Data:
        Version: 3 (0x2)
        Serial Number:
            5e:3d:90:1b:60:49:eb:2d:d0:80:11:bb:1e:b8:80:92:ad:30:54:ec
        Signature Algorithm: sha256WithRSAEncryption
        Issuer: C=CH, O=HEIG-VD, CN=HEIG-VDRoot
        Validity
            Not Before: Jun  3 13:37:34 2025 GMT
            Not After : Jun  3 13:37:34 2035 GMT
        Subject: C=CH, O=HEIG-VD, CN=LESTIBOUDOIS-TLS
        Subject Public Key Info:
            Public Key Algorithm: rsaEncryption
                Public-Key: (2048 bit)
                Modulus:
                    00:f6:69:3b:d8:3b:6e:f6:a0:bf:a7:d8:c1:5a:e8:
                    20:e6:43:ac:ff:1f:e1:ae:e6:c7:67:bb:f8:a9:a5:
                    5a:15:19:11:4c:d5:2c:db:c2:df:d1:0d:02:09:17:
                    97:c6:f5:18:e5:0d:79:87:17:30:4d:63:af:d2:6e:
                    b4:54:69:b8:fa:55:03:6b:6f:86:de:9c:ae:fd:38:
                    de:03:5f:42:c6:dc:bd:80:e4:e8:a6:d7:25:22:b9:
                    b7:88:98:c2:e2:74:e4:6f:6d:4b:61:3c:71:98:87:
                    ba:70:84:8e:05:e1:2c:70:8b:0b:40:4d:4d:ed:08:
                    50:68:52:c7:c8:44:a5:03:9a:e2:d4:7f:36:2e:3f:
                    0f:4d:70:00:4c:8d:cd:c6:77:dc:47:bc:31:12:97:
                    eb:74:39:5c:0f:20:b6:e9:1c:d2:6e:92:47:aa:00:
                    4f:e0:95:ea:28:2a:de:e9:f7:5a:6a:f8:6a:0e:08:
                    cb:b4:a9:7e:ce:f8:7b:69:b6:e7:a2:28:46:87:9a:
                    05:69:bc:0a:7d:03:63:35:6a:96:44:2d:c5:b9:a8:
                    66:4c:16:2e:e0:b4:d1:c2:8b:78:56:da:ca:a7:63:
                    5b:f2:e5:1a:e7:39:01:63:a0:69:70:28:94:47:e6:
                    3e:d5:bf:76:c6:00:76:19:cc:e4:bc:5e:09:17:bb:
                    66:ef
                Exponent: 65537 (0x10001)
        X509v3 extensions:
            X509v3 Key Usage: critical
                Certificate Sign, CRL Sign
            X509v3 Basic Constraints: critical
                CA:TRUE, pathlen:0
            X509v3 Subject Key Identifier: 
                42:CC:D3:93:88:69:A7:27:16:1C:53:EF:E9:D7:F5:0A:31:5C:4C:50
            X509v3 Authority Key Identifier: 
                B0:0B:BF:2D:D3:44:1C:8B:B0:AD:85:52:A5:15:25:13:0D:B9:D6:70
    Signature Algorithm: sha256WithRSAEncryption
    Signature Value:
        77:13:ee:ff:0f:0a:c4:8c:26:57:b6:a2:19:0a:59:6e:8f:44:
        1c:9c:f9:93:88:1f:10:ba:3c:44:d7:47:ac:8b:4f:ec:cb:c8:
        7d:c0:05:6a:cf:40:f7:c8:ee:f4:e8:e0:c7:c7:05:a4:c8:78:
        05:fa:e6:f4:9f:55:90:cc:ba:21:b0:b4:2d:31:85:45:88:cf:
        ce:07:90:8b:51:4c:b7:23:7e:7b:50:7c:45:b8:96:b4:98:9b:
        d0:a1:05:07:15:24:5e:3b:bf:c3:f2:17:79:68:97:fe:37:b9:
        16:13:9e:f3:d8:58:3f:32:2a:d2:a4:ae:c0:d6:c9:ec:fe:99:
        1e:97:f8:6c:79:ac:fe:0c:0c:7f:98:61:27:4e:22:83:0b:3b:
        3e:2f:8b:43:f5:26:6b:6e:2c:a4:79:56:51:51:6c:36:58:01:
        e4:89:a2:87:44:76:9d:66:e1:21:44:fe:be:db:2c:b8:66:46:
        89:7e:b8:2e:70:84:a6:31:c1:f2:55:1f:70:86:c0:62:7f:60:
        37:97:2e:44:75:65:05:22:37:d7:52:b4:eb:d6:c7:e0:54:c6:
        09:9a:b8:56:6f:89:a5:21:dd:28:55:d9:8d:61:0d:87:9a:c6:
        32:e7:a3:ba:73:62:3f:d5:ad:3c:22:2a:36:58:29:56:5f:b3:
        bb:73:55:41
-----BEGIN CERTIFICATE-----
MIIDYzCCAkugAwIBAgIUXj2QG2BJ6y3QgBG7HriAkq0wVOwwDQYJKoZIhvcNAQEL
BQAwNTELMAkGA1UEBhMCQ0gxEDAOBgNVBAoMB0hFSUctVkQxFDASBgNVBAMMC0hF
SUctVkRSb290MB4XDTI1MDYwMzEzMzczNFoXDTM1MDYwMzEzMzczNFowOjELMAkG
A1UEBhMCQ0gxEDAOBgNVBAoMB0hFSUctVkQxGTAXBgNVBAMMEExFU1RJQk9VRE9J
Uy1UTFMwggEiMA0GCSqGSIb3DQEBAQUAA4IBDwAwggEKAoIBAQD2aTvYO272oL+n
2MFa6CDmQ6z/H+Gu5sdnu/ippVoVGRFM1Szbwt/RDQIJF5fG9RjlDXmHFzBNY6/S
brRUabj6VQNrb4benK79ON4DX0LG3L2A5Oim1yUiubeImMLidORvbUthPHGYh7pw
hI4F4SxwiwtATU3tCFBoUsfIRKUDmuLUfzYuPw9NcABMjc3Gd9xHvDESl+t0OVwP
ILbpHNJukkeqAE/gleooKt7p91pq+GoOCMu0qX7O+HtptueiKEaHmgVpvAp9A2M1
apZELcW5qGZMFi7gtNHCi3hW2sqnY1vy5RrnOQFjoGlwKJRH5j7Vv3bGAHYZzOS8
XgkXu2bvAgMBAAGjZjBkMA4GA1UdDwEB/wQEAwIBBjASBgNVHRMBAf8ECDAGAQH/
AgEAMB0GA1UdDgQWBBRCzNOTiGmnJxYcU+/p1/UKMVxMUDAfBgNVHSMEGDAWgBSw
C78t00Qci7CthVKlFSUTDbnWcDANBgkqhkiG9w0BAQsFAAOCAQEAdxPu/w8KxIwm
V7aiGQpZbo9EHJz5k4gfELo8RNdHrItP7MvIfcAFas9A98ju9Ojgx8cFpMh4Bfrm
9J9VkMy6IbC0LTGFRYjPzgeQi1FMtyN+e1B8RbiWtJib0KEFBxUkXju/w/IXeWiX
/je5FhOe89hYPzIq0qSuwNbJ7P6ZHpf4bHms/gwMf5hhJ04igws7Pi+LQ/Uma24s
pHlWUVFsNlgB5Imih0R2nWbhIUT+vtssuGZGiX64LnCEpjHB8lUfcIbAYn9gN5cu
RHVlBSI311K069bH4FTGCZq4Vm+JpSHdKFXZjWENh5rGMuejunNiP9WtPCIqNlgp
Vl+zu3NVQQ==
-----END CERTIFICATE-----
